target datalayout = "e-m:e-p270:32:32-p271:32:32-p272:64:64-i64:64-i128:128-f80:128-n8:16:32:64-S128"
target triple = "x86_64-pc-linux-gnu"

%struct.hwloc_topology = type { i32, i32, i32, ptr, ptr, i64, [20 x i32], [20 x i32], i64, i64, i32, ptr, i64, ptr, i64, [6 x %struct.hwloc_special_level_s], ptr, ptr, %struct.hwloc_binding_hooks, %struct.hwloc_topology_support, %struct.hwloc_infos_s, ptr, ptr, i32, ptr, ptr, i32, i32, ptr, i32, i32, ptr, i32, i32, i32, [5 x float], i32, ptr, ptr, i32, i32, ptr, i32, %struct.hwloc_numanode_attr_s, i32, i32, ptr, i64, i32, ptr, ptr, ptr }
%struct.hwloc_special_level_s = type { i32, ptr, ptr, ptr }
%struct.hwloc_binding_hooks = type { ptr, ptr, ptr, ptr, ptr, ptr, ptr, ptr, ptr, ptr, ptr, ptr, ptr, ptr, ptr, ptr, ptr, ptr, ptr, ptr, ptr, ptr, ptr, ptr }
%struct.hwloc_topology_support = type { ptr, ptr, ptr, ptr }
%struct.hwloc_infos_s = type { ptr, i32, i32 }
%struct.hwloc_numanode_attr_s = type { i64, i32, ptr }
%struct.hwloc_internal_cpukind_s = type { ptr, i32, i32, i64, %struct.hwloc_infos_s }

; Function Attrs: nounwind uwtable
define hidden void @hwloc_internal_cpukinds_destroy(ptr noundef %0) #0 {
  %2 = alloca ptr, align 8
  %3 = alloca i32, align 4
  %4 = alloca ptr, align 8
  store ptr %0, ptr %2, align 8, !tbaa !3
  call void @llvm.lifetime.start.p0(i64 4, ptr %3) #14
  store i32 0, ptr %3, align 4, !tbaa !35
  br label %5

5:                                                ; preds = %23, %1
  %6 = load i32, ptr %3, align 4, !tbaa !35
  %7 = load ptr, ptr %2, align 8, !tbaa !3
  %8 = getelementptr inbounds nuw %struct.hwloc_topology, ptr %7, i32 0, i32 29
  %9 = load i32, ptr %8, align 8, !tbaa !33
  %10 = icmp ult i32 %6, %9
  br i1 %10, label %11, label %26

11:                                               ; preds = %5
  call void @llvm.lifetime.start.p0(i64 8, ptr %4) #14
  %12 = load ptr, ptr %2, align 8, !tbaa !3
  %13 = getelementptr inbounds nuw %struct.hwloc_topology, ptr %12, i32 0, i32 31
  %14 = load ptr, ptr %13, align 8, !tbaa !8
  %15 = load i32, ptr %3, align 4, !tbaa !35
  %16 = zext i32 %15 to i64
  %17 = getelementptr inbounds nuw %struct.hwloc_internal_cpukind_s, ptr %14, i64 %16
  store ptr %17, ptr %4, align 8, !tbaa !36
  %18 = load ptr, ptr %4, align 8, !tbaa !36
  %19 = getelementptr inbounds nuw %struct.hwloc_internal_cpukind_s, ptr %18, i32 0, i32 0
  %20 = load ptr, ptr %19, align 8, !tbaa !37
  call void @hwloc_bitmap_free(ptr noundef %20)
  %21 = load ptr, ptr %4, align 8, !tbaa !36
  %22 = getelementptr inbounds nuw %struct.hwloc_internal_cpukind_s, ptr %21, i32 0, i32 4
  call void @hwloc__free_infos(ptr noundef %22)
  call void @llvm.lifetime.end.p0(i64 8, ptr %4) #14
  br label %23

23:                                               ; preds = %11
  %24 = load i32, ptr %3, align 4, !tbaa !35
  %25 = add i32 %24, 1
  store i32 %25, ptr %3, align 4, !tbaa !35
  br label %5, !llvm.loop !39

26:                                               ; preds = %5
  %27 = load ptr, ptr %2, align 8, !tbaa !3
  %28 = getelementptr inbounds nuw %struct.hwloc_topology, ptr %27, i32 0, i32 31
  %29 = load ptr, ptr %28, align 8, !tbaa !8
  call void @free(ptr noundef %29) #14
  %30 = load ptr, ptr %2, align 8, !tbaa !3
  %31 = getelementptr inbounds nuw %struct.hwloc_topology, ptr %30, i32 0, i32 31
  store ptr null, ptr %31, align 8, !tbaa !8
  %32 = load ptr, ptr %2, align 8, !tbaa !3
  %33 = getelementptr inbounds nuw %struct.hwloc_topology, ptr %32, i32 0, i32 29
  store i32 0, ptr %33, align 8, !tbaa !33
  call void @llvm.lifetime.end.p0(i64 4, ptr %3) #14
  ret void
}