; Function Attrs: nounwind uwtable
define hidden void @hwloc_internal_cpukinds_destroy(ptr noundef captures(none) %0) local_unnamed_addr #1 {
  %2 = getelementptr inbounds nuw i8, ptr %0, i64 760
  %3 = load i32, ptr %2, align 8, !tbaa !3
  %.not = icmp eq i32 %3, 0
  br i1 %.not, label %._crit_edge, label %.lr.ph

.lr.ph:                                           ; preds = %1
  %4 = getelementptr inbounds nuw i8, ptr %0, i64 768
  br label %5

5:                                                ; preds = %.lr.ph, %5
  %indvars.iv = phi i64 [ 0, %.lr.ph ], [ %indvars.iv.next, %5 ]
  %6 = load ptr, ptr %4, align 8, !tbaa !31
  %7 = getelementptr inbounds nuw %struct.hwloc_internal_cpukind_s, ptr %6, i64 %indvars.iv
  %8 = load ptr, ptr %7, align 8, !tbaa !32
  tail call void @hwloc_bitmap_free(ptr noundef %8) #22
  %9 = getelementptr inbounds nuw i8, ptr %7, i64 24
  tail call void @hwloc__free_infos(ptr noundef nonnull %9) #22
  %indvars.iv.next = add nuw nsw i64 %indvars.iv, 1
  %10 = load i32, ptr %2, align 8, !tbaa !3
  %11 = zext i32 %10 to i64
  %12 = icmp samesign ult i64 %indvars.iv.next, %11
  br i1 %12, label %5, label %._crit_edge, !llvm.loop !34

._crit_edge:                                      ; preds = %5, %1
  %13 = getelementptr inbounds nuw i8, ptr %0, i64 768
  %14 = load ptr, ptr %13, align 8, !tbaa !31
  tail call void @free(ptr noundef %14) #22
  store ptr null, ptr %13, align 8, !tbaa !31
  store i32 0, ptr %2, align 8, !tbaa !3
  ret void
}